Certificate:
    Data:
        Version: 3 (0x2)
        Serial Number: 12161656026837094697 (0xa8c6e1b8a01d1129)
    Signature Algorithm: sha256WithRSAEncryption
        Issuer: C=DE, ST=NRW, O=Freifunk Hochstift, CN=CA/emailAddress=ops@ffho.net
        Validity
            Not Before: Sep  6 13:37:43 2015 GMT
            Not After : Sep  3 13:37:43 2025 GMT
        Subject: C=DE, ST=NRW, O=Freifunk Hochstift, CN=CA/emailAddress=ops@ffho.net
        Subject Public Key Info:
            Public Key Algorithm: rsaEncryption
                Public-Key: (2048 bit)
                Modulus:
                    00:9b:41:d2:fc:2d:ff:20:dc:90:56:83:f4:50:71:
                    2b:d5:5b:9c:3d:3a:61:56:05:22:cd:06:e0:2d:c2:
                    13:0e:88:1f:26:4e:4b:6f:08:e8:ba:1a:c1:56:a2:
                    62:03:c2:71:49:b3:e5:89:16:08:e4:48:14:ad:98:
                    c1:8f:0e:d6:fa:50:56:f6:b8:9c:9d:74:42:b2:54:
                    23:6e:c6:e3:45:52:b7:48:c5:48:79:94:5a:8b:38:
                    77:20:43:80:46:6c:22:01:41:86:b9:de:71:e0:b0:
                    19:b1:13:1c:64:e6:07:bc:88:22:99:6e:0e:d0:8a:
                    25:3e:22:ae:64:6c:95:f5:8c:d0:43:be:88:83:2e:
                    82:7e:c2:8d:0a:67:69:44:71:20:eb:1d:9b:16:c5:
                    88:09:23:ef:7d:81:9d:72:c9:f9:8f:a7:cf:69:71:
                    70:bb:0e:58:ef:ef:6c:48:47:3d:e8:6a:f7:f4:3a:
                    cd:e8:70:62:71:96:25:0b:dd:6d:6a:35:5c:f1:84:
                    96:b1:aa:87:1c:96:bf:3e:8e:ed:c4:ec:8d:9a:43:
                    f5:a5:6f:1c:45:e5:16:10:de:7a:59:fb:6b:a7:cb:
                    6d:21:3a:4b:33:0b:8d:ff:20:ee:dd:dd:01:36:f8:
                    2e:e8:32:75:b2:3a:ef:0c:1b:61:40:d8:28:ff:07:
                    ea:1f
                Exponent: 65537 (0x10001)
        X509v3 extensions:
            X509v3 Subject Key Identifier: 
                C4:79:EA:3C:1A:53:03:E7:3C:5B:48:44:E1:27:72:7D:F7:73:BC:45
            X509v3 Authority Key Identifier: 
                keyid:C4:79:EA:3C:1A:53:03:E7:3C:5B:48:44:E1:27:72:7D:F7:73:BC:45

            X509v3 Basic Constraints: 
                CA:TRUE
    Signature Algorithm: sha256WithRSAEncryption
         72:90:35:5b:1c:d7:93:5e:eb:d7:34:5c:0a:21:bf:e1:0c:d1:
         1c:37:28:38:c1:15:d0:7e:48:00:f7:82:16:f3:a6:50:72:e8:
         69:e3:69:ef:d3:2d:41:8c:a9:74:b4:7e:59:80:f4:4c:36:24:
         8a:db:c3:0d:bc:f4:5c:89:cb:e1:e3:98:45:4d:4f:72:68:31:
         c0:21:5e:50:5d:d8:8f:13:c5:8f:16:89:8b:d3:50:db:91:c3:
         6c:28:9b:3e:de:90:ea:f9:44:1f:d4:97:2f:d0:ff:98:56:17:
         4b:d3:f7:af:e3:76:61:f0:07:68:18:5e:4b:64:ce:d3:0e:b0:
         69:99:84:2a:11:d4:74:e6:a8:51:e7:dc:38:5d:fa:e1:ce:39:
         a6:99:74:ec:9c:06:84:73:71:1d:70:12:ea:aa:2c:15:4c:57:
         cd:51:dd:46:72:8c:24:06:66:1d:b5:d8:15:67:3d:10:b1:da:
         17:85:15:7e:77:02:8f:92:08:1d:cd:26:29:91:8d:83:7c:7d:
         8d:f9:24:17:4d:65:d8:67:2e:61:14:df:93:8f:4b:4c:73:7b:
         e7:57:f4:7b:02:41:3e:21:14:09:2f:88:fe:6a:44:15:f7:cb:
         da:14:0d:9c:8b:2c:df:fd:8b:78:3f:ec:5a:03:c0:55:31:03:
         61:f7:62:84
-----BEGIN CERTIFICATE-----
MIIDlzCCAn+gAwIBAgIJAKjG4bigHREpMA0GCSqGSIb3DQEBCwUAMGIxCzAJBgNV
BAYTAkRFMQwwCgYDVQQIDANOUlcxGzAZBgNVBAoMEkZyZWlmdW5rIEhvY2hzdGlm
dDELMAkGA1UEAwwCQ0ExGzAZBgkqhkiG9w0BCQEWDG9wc0BmZmhvLm5ldDAeFw0x
NTA5MDYxMzM3NDNaFw0yNTA5MDMxMzM3NDNaMGIxCzAJBgNVBAYTAkRFMQwwCgYD
VQQIDANOUlcxGzAZBgNVBAoMEkZyZWlmdW5rIEhvY2hzdGlmdDELMAkGA1UEAwwC
Q0ExGzAZBgkqhkiG9w0BCQEWDG9wc0BmZmhvLm5ldDCCASIwDQYJKoZIhvcNAQEB
BQADggEPADCCAQoCggEBAJtB0vwt/yDckFaD9FBxK9VbnD06YVYFIs0G4C3CEw6I
HyZOS28I6LoawVaiYgPCcUmz5YkWCORIFK2YwY8O1vpQVva4nJ10QrJUI27G40VS
t0jFSHmUWos4dyBDgEZsIgFBhrneceCwGbETHGTmB7yIIpluDtCKJT4irmRslfWM
0EO+iIMugn7CjQpnaURxIOsdmxbFiAkj732BnXLJ+Y+nz2lxcLsOWO/vbEhHPehq
9/Q6zehwYnGWJQvdbWo1XPGElrGqhxyWvz6O7cTsjZpD9aVvHEXlFhDeeln7a6fL
bSE6SzMLjf8g7t3dATb4LugydbI67wwbYUDYKP8H6h8CAwEAAaNQME4wHQYDVR0O
BBYEFMR56jwaUwPnPFtIROEncn33c7xFMB8GA1UdIwQYMBaAFMR56jwaUwPnPFtI
ROEncn33c7xFMAwGA1UdEwQFMAMBAf8wDQYJKoZIhvcNAQELBQADggEBAHKQNVsc
15Ne69c0XAohv+EM0Rw3KDjBFdB+SAD3ghbzplBy6Gnjae/TLUGMqXS0flmA9Ew2
JIrbww289FyJy+HjmEVNT3JoMcAhXlBd2I8TxY8WiYvTUNuRw2womz7ekOr5RB/U
ly/Q/5hWF0vT96/jdmHwB2gYXktkztMOsGmZhCoR1HTmqFHn3Dhd+uHOOaaZdOyc
BoRzcR1wEuqqLBVMV81R3UZyjCQGZh212BVnPRCx2heFFX53Ao+SCB3NJimRjYN8
fY35JBdNZdhnLmEU35OPS0xze+dX9HsCQT4hFAkviP5qRBX3y9oUDZyLLN/9i3g/
7FoDwFUxA2H3YoQ=
-----END CERTIFICATE-----
